; Function Attrs: mustprogress uwtable
define void @_Z17ufile_flush_io_77P5UFILE(ptr noundef %0) local_unnamed_addr #0 {
  %.not = icmp eq ptr %0, null
  br i1 %.not, label %7, label %2

2:                                                ; preds = %1
  %3 = getelementptr inbounds nuw i8, ptr %0, i64 8
  %4 = load ptr, ptr %3, align 8, !tbaa !32
  %.not3 = icmp eq ptr %4, null
  br i1 %.not3, label %7, label %5

5:                                                ; preds = %2
  %6 = tail call i32 @u_file_write_flush_77(ptr noundef null, i32 noundef 0, ptr noundef nonnull %0, i8 noundef signext 1, i8 noundef signext 0)
  br label %7

7:                                                ; preds = %1, %2, %5
  ret void
}